target datalayout = "e-m:e-p270:32:32-p271:32:32-p272:64:64-i64:64-i128:128-f80:128-n8:16:32:64-S128"
target triple = "x86_64-pc-linux-gnu"

%struct.H5F_super_t = type { %struct.H5C_cache_entry_t, i32, i8, i8, i8, i32, [2 x i32], i64, i64, i64, i64, ptr }
%struct.H5C_cache_entry_t = type { ptr, i64, i64, ptr, i8, ptr, i8, i8, i8, i8, i32, i8, i8, i8, i8, i8, i32, ptr, i32, i32, i32, i32, i32, i8, i8, ptr, ptr, ptr, ptr, ptr, ptr, i8, i32, i8, i64, ptr, i64, i64, i32, i8, i32, i32, i8, ptr, ptr, ptr }

@H5F_init_g = external global i8, align 1
@H5_libterm_g = external global i8, align 1

; Function Attrs: nounwind uwtable
define internal i32 @H5F__cache_superblock_image_len(ptr noundef %0, ptr noundef %1) #0 {
  %3 = alloca ptr, align 8
  %4 = alloca ptr, align 8
  %5 = alloca ptr, align 8
  store ptr %0, ptr %3, align 8, !tbaa !3
  store ptr %1, ptr %4, align 8, !tbaa !7
  call void @llvm.lifetime.start.p0(i64 8, ptr %5) #6
  %6 = load ptr, ptr %3, align 8, !tbaa !3
  store ptr %6, ptr %5, align 8, !tbaa !37
  %7 = load i8, ptr @H5F_init_g, align 1, !tbaa !9, !range !11, !noundef !12
  %8 = trunc i8 %7 to i1
  br i1 %8, label %13, label %9

9:                                                ; preds = %2
  %10 = load i8, ptr @H5_libterm_g, align 1, !tbaa !9, !range !11, !noundef !12
  %11 = trunc i8 %10 to i1
  %12 = xor i1 %11, true
  br label %13

13:                                               ; preds = %9, %2
  %14 = phi i1 [ true, %2 ], [ %12, %9 ]
  %15 = xor i1 %14, true
  %16 = xor i1 %15, true
  %17 = zext i1 %16 to i32
  %18 = sext i32 %17 to i64
  %19 = call i64 @llvm.expect.i64(i64 %18, i64 1)
  %20 = icmp ne i64 %19, 0
  br i1 %20, label %21, label %138

21:                                               ; preds = %13
  %22 = load ptr, ptr %5, align 8, !tbaa !37
  %23 = getelementptr inbounds nuw %struct.H5F_super_t, ptr %22, i32 0, i32 1
  %24 = load i32, ptr %23, align 8, !tbaa !21
  %25 = icmp eq i32 %24, 0
  br i1 %25, label %26, label %60

26:                                               ; preds = %21
  %27 = load ptr, ptr %5, align 8, !tbaa !37
  %28 = getelementptr inbounds nuw %struct.H5F_super_t, ptr %27, i32 0, i32 2
  %29 = load i8, ptr %28, align 4, !tbaa !33
  %30 = zext i8 %29 to i32
  %31 = add nsw i32 15, %30
  %32 = load ptr, ptr %5, align 8, !tbaa !37
  %33 = getelementptr inbounds nuw %struct.H5F_super_t, ptr %32, i32 0, i32 2
  %34 = load i8, ptr %33, align 4, !tbaa !33
  %35 = zext i8 %34 to i32
  %36 = add nsw i32 %31, %35
  %37 = load ptr, ptr %5, align 8, !tbaa !37
  %38 = getelementptr inbounds nuw %struct.H5F_super_t, ptr %37, i32 0, i32 2
  %39 = load i8, ptr %38, align 4, !tbaa !33
  %40 = zext i8 %39 to i32
  %41 = add nsw i32 %36, %40
  %42 = load ptr, ptr %5, align 8, !tbaa !37
  %43 = getelementptr inbounds nuw %struct.H5F_super_t, ptr %42, i32 0, i32 2
  %44 = load i8, ptr %43, align 4, !tbaa !33
  %45 = zext i8 %44 to i32
  %46 = add nsw i32 %41, %45
  %47 = load ptr, ptr %5, align 8, !tbaa !37
  %48 = getelementptr inbounds nuw %struct.H5F_super_t, ptr %47, i32 0, i32 3
  %49 = load i8, ptr %48, align 1, !tbaa !34
  %50 = zext i8 %49 to i32
  %51 = load ptr, ptr %5, align 8, !tbaa !37
  %52 = getelementptr inbounds nuw %struct.H5F_super_t, ptr %51, i32 0, i32 2
  %53 = load i8, ptr %52, align 4, !tbaa !33
  %54 = zext i8 %53 to i32
  %55 = add nsw i32 %50, %54
  %56 = add nsw i32 %55, 4
  %57 = add nsw i32 %56, 4
  %58 = add nsw i32 %57, 16
  %59 = add nsw i32 %46, %58
  br label %61

60:                                               ; preds = %21
  br label %61

61:                                               ; preds = %60, %26
  %62 = phi i32 [ %59, %26 ], [ 0, %60 ]
  %63 = load ptr, ptr %5, align 8, !tbaa !37
  %64 = getelementptr inbounds nuw %struct.H5F_super_t, ptr %63, i32 0, i32 1
  %65 = load i32, ptr %64, align 8, !tbaa !21
  %66 = icmp eq i32 %65, 1
  br i1 %66, label %67, label %101

67:                                               ; preds = %61
  %68 = load ptr, ptr %5, align 8, !tbaa !37
  %69 = getelementptr inbounds nuw %struct.H5F_super_t, ptr %68, i32 0, i32 2
  %70 = load i8, ptr %69, align 4, !tbaa !33
  %71 = zext i8 %70 to i32
  %72 = add nsw i32 19, %71
  %73 = load ptr, ptr %5, align 8, !tbaa !37
  %74 = getelementptr inbounds nuw %struct.H5F_super_t, ptr %73, i32 0, i32 2
  %75 = load i8, ptr %74, align 4, !tbaa !33
  %76 = zext i8 %75 to i32
  %77 = add nsw i32 %72, %76
  %78 = load ptr, ptr %5, align 8, !tbaa !37
  %79 = getelementptr inbounds nuw %struct.H5F_super_t, ptr %78, i32 0, i32 2
  %80 = load i8, ptr %79, align 4, !tbaa !33
  %81 = zext i8 %80 to i32
  %82 = add nsw i32 %77, %81
  %83 = load ptr, ptr %5, align 8, !tbaa !37
  %84 = getelementptr inbounds nuw %struct.H5F_super_t, ptr %83, i32 0, i32 2
  %85 = load i8, ptr %84, align 4, !tbaa !33
  %86 = zext i8 %85 to i32
  %87 = add nsw i32 %82, %86
  %88 = load ptr, ptr %5, align 8, !tbaa !37
  %89 = getelementptr inbounds nuw %struct.H5F_super_t, ptr %88, i32 0, i32 3
  %90 = load i8, ptr %89, align 1, !tbaa !34
  %91 = zext i8 %90 to i32
  %92 = load ptr, ptr %5, align 8, !tbaa !37
  %93 = getelementptr inbounds nuw %struct.H5F_super_t, ptr %92, i32 0, i32 2
  %94 = load i8, ptr %93, align 4, !tbaa !33
  %95 = zext i8 %94 to i32
  %96 = add nsw i32 %91, %95
  %97 = add nsw i32 %96, 4
  %98 = add nsw i32 %97, 4
  %99 = add nsw i32 %98, 16
  %100 = add nsw i32 %87, %99
  br label %102

101:                                              ; preds = %61
  br label %102

102:                                              ; preds = %101, %67
  %103 = phi i32 [ %100, %67 ], [ 0, %101 ]
  %104 = add nsw i32 %62, %103
  %105 = load ptr, ptr %5, align 8, !tbaa !37
  %106 = getelementptr inbounds nuw %struct.H5F_super_t, ptr %105, i32 0, i32 1
  %107 = load i32, ptr %106, align 8, !tbaa !21
  %108 = icmp uge i32 %107, 2
  br i1 %108, label %109, label %131

109:                                              ; preds = %102
  %110 = load ptr, ptr %5, align 8, !tbaa !37
  %111 = getelementptr inbounds nuw %struct.H5F_super_t, ptr %110, i32 0, i32 2
  %112 = load i8, ptr %111, align 4, !tbaa !33
  %113 = zext i8 %112 to i32
  %114 = add nsw i32 3, %113
  %115 = load ptr, ptr %5, align 8, !tbaa !37
  %116 = getelementptr inbounds nuw %struct.H5F_super_t, ptr %115, i32 0, i32 2
  %117 = load i8, ptr %116, align 4, !tbaa !33
  %118 = zext i8 %117 to i32
  %119 = add nsw i32 %114, %118
  %120 = load ptr, ptr %5, align 8, !tbaa !37
  %121 = getelementptr inbounds nuw %struct.H5F_super_t, ptr %120, i32 0, i32 2
  %122 = load i8, ptr %121, align 4, !tbaa !33
  %123 = zext i8 %122 to i32
  %124 = add nsw i32 %119, %123
  %125 = load ptr, ptr %5, align 8, !tbaa !37
  %126 = getelementptr inbounds nuw %struct.H5F_super_t, ptr %125, i32 0, i32 2
  %127 = load i8, ptr %126, align 4, !tbaa !33
  %128 = zext i8 %127 to i32
  %129 = add nsw i32 %124, %128
  %130 = add nsw i32 %129, 4
  br label %132

131:                                              ; preds = %102
  br label %132

132:                                              ; preds = %131, %109
  %133 = phi i32 [ %130, %109 ], [ 0, %131 ]
  %134 = add nsw i32 %104, %133
  %135 = add nsw i32 9, %134
  %136 = sext i32 %135 to i64
  %137 = load ptr, ptr %4, align 8, !tbaa !7
  store i64 %136, ptr %137, align 8, !tbaa !13
  br label %138

138:                                              ; preds = %132, %13
  call void @llvm.lifetime.end.p0(i64 8, ptr %5) #6
  ret i32 0
}