; Function Attrs: mustprogress nofree norecurse nosync nounwind willreturn memory(read, argmem: readwrite, inaccessiblemem: none) uwtable
define internal noundef i32 @H5F__cache_superblock_image_len(ptr noundef readonly captures(none) %0, ptr noundef writeonly captures(none) %1) #2 {
  %3 = load i8, ptr @H5F_init_g, align 1, !tbaa !3, !range !7, !noundef !8
  %4 = trunc nuw i8 %3 to i1
  %5 = load i8, ptr @H5_libterm_g, align 1, !range !7
  %6 = trunc nuw i8 %5 to i1
  %7 = xor i1 %6, true
  %8 = select i1 %4, i1 true, i1 %7
  br i1 %8, label %9, label %34, !prof !9

9:                                                ; preds = %2
  %10 = getelementptr inbounds nuw i8, ptr %0, i64 248
  %11 = load i32, ptr %10, align 8, !tbaa !15
  %12 = getelementptr inbounds nuw i8, ptr %0, i64 252
  %13 = load i8, ptr %12, align 4, !tbaa !32
  %14 = zext i8 %13 to i32
  %15 = shl nuw nsw i32 %14, 2
  switch i32 %11, label %29 [
    i32 0, label %.thread
    i32 1, label %22
  ]

.thread:                                          ; preds = %9
  %16 = getelementptr inbounds nuw i8, ptr %0, i64 253
  %17 = load i8, ptr %16, align 1, !tbaa !29
  %18 = zext i8 %17 to i32
  %19 = add nuw nsw i32 %14, 39
  %20 = add nuw nsw i32 %19, %18
  %21 = add nuw nsw i32 %20, %15
  br label %.thread25

22:                                               ; preds = %9
  %23 = getelementptr inbounds nuw i8, ptr %0, i64 253
  %24 = load i8, ptr %23, align 1, !tbaa !29
  %25 = zext i8 %24 to i32
  %26 = add nuw nsw i32 %14, 43
  %27 = add nuw nsw i32 %26, %25
  %28 = add nuw nsw i32 %27, %15
  br label %.thread25

29:                                               ; preds = %9
  %30 = add nuw nsw i32 %15, 7
  br label %.thread25

.thread25:                                        ; preds = %22, %.thread, %29
  %31 = phi i32 [ %30, %29 ], [ %21, %.thread ], [ %28, %22 ]
  %32 = add nuw nsw i32 %31, 9
  %33 = zext nneg i32 %32 to i64
  store i64 %33, ptr %1, align 8, !tbaa !10
  br label %34

34:                                               ; preds = %.thread25, %2
  ret i32 0
}